; ModuleID = '60/1707.c'
source_filename = "60/1707.c"
target datalayout = "e-m:e-p270:32:32-p271:32:32-p272:64:64-i64:64-f80:128-n8:16:32:64-S128"
target triple = "x86_64-pc-linux-gnu"

@.str = private unnamed_addr constant [3 x i8] c"%d\00", align 1
@.str.1 = private unnamed_addr constant [7 x i8] c"empty\0A\00", align 1
@.str.2 = private unnamed_addr constant [7 x i8] c"%d %d\0A\00", align 1

; Function Attrs: noinline nounwind uwtable
define dso_local i32 @main() #0 {
  %1 = alloca i32, align 4
  %2 = alloca i32, align 4
  %3 = alloca i32, align 4
  %4 = alloca i32, align 4
  %5 = alloca i32, align 4
  %6 = alloca i32, align 4
  %7 = alloca i32, align 4
  %8 = alloca i32, align 4
  %9 = alloca i32, align 4
  store i32 0, i32* %1, align 4
  %10 = call i32 (i8*, ...) @__isoc99_scanf(i8* getelementptr inbounds ([3 x i8], [3 x i8]* @.str, i64 0, i64 0), i32* %7)
  %11 = load i32, i32* %7, align 4
  %12 = icmp sle i32 %11, 4
  br i1 %12, label %13, label %15

13:                                               ; preds = %0
  %14 = call i32 (i8*, ...) @printf(i8* getelementptr inbounds ([7 x i8], [7 x i8]* @.str.1, i64 0, i64 0))
  br label %70

15:                                               ; preds = %0
  store i32 0, i32* %8, align 4
  store i32 0, i32* %9, align 4
  store i32 3, i32* %2, align 4
  br label %16

16:                                               ; preds = %66, %15
  %17 = load i32, i32* %2, align 4
  %18 = load i32, i32* %7, align 4
  %19 = sub nsw i32 %18, 2
  %20 = icmp sle i32 %17, %19
  br i1 %20, label %21, label %69

21:                                               ; preds = %16
  store i32 3, i32* %3, align 4
  br label %22

22:                                               ; preds = %33, %21
  %23 = load i32, i32* %3, align 4
  %24 = load i32, i32* %2, align 4
  %25 = icmp slt i32 %23, %24
  br i1 %25, label %26, label %36

26:                                               ; preds = %22
  %27 = load i32, i32* %2, align 4
  %28 = load i32, i32* %3, align 4
  %29 = srem i32 %27, %28
  %30 = icmp eq i32 %29, 0
  br i1 %30, label %31, label %32

31:                                               ; preds = %26
  store i32 1, i32* %8, align 4
  br label %32

32:                                               ; preds = %31, %26
  br label %33

33:                                               ; preds = %32
  %34 = load i32, i32* %3, align 4
  %35 = add nsw i32 %34, 2
  store i32 %35, i32* %3, align 4
  br label %22

36:                                               ; preds = %22
  %37 = load i32, i32* %8, align 4
  %38 = icmp eq i32 %37, 0
  br i1 %38, label %39, label %65

39:                                               ; preds = %36
  %40 = load i32, i32* %2, align 4
  store i32 %40, i32* %5, align 4
  %41 = load i32, i32* %2, align 4
  %42 = add nsw i32 %41, 2
  store i32 %42, i32* %6, align 4
  store i32 3, i32* %4, align 4
  br label %43

43:                                               ; preds = %54, %39
  %44 = load i32, i32* %4, align 4
  %45 = load i32, i32* %6, align 4
  %46 = icmp slt i32 %44, %45
  br i1 %46, label %47, label %57

47:                                               ; preds = %43
  %48 = load i32, i32* %6, align 4
  %49 = load i32, i32* %4, align 4
  %50 = srem i32 %48, %49
  %51 = icmp eq i32 %50, 0
  br i1 %51, label %52, label %53

52:                                               ; preds = %47
  store i32 1, i32* %9, align 4
  br label %53

53:                                               ; preds = %52, %47
  br label %54

54:                                               ; preds = %53
  %55 = load i32, i32* %4, align 4
  %56 = add nsw i32 %55, 2
  store i32 %56, i32* %4, align 4
  br label %43

57:                                               ; preds = %43
  %58 = load i32, i32* %9, align 4
  %59 = icmp eq i32 %58, 0
  br i1 %59, label %60, label %64

60:                                               ; preds = %57
  %61 = load i32, i32* %5, align 4
  %62 = load i32, i32* %6, align 4
  %63 = call i32 (i8*, ...) @printf(i8* getelementptr inbounds ([7 x i8], [7 x i8]* @.str.2, i64 0, i64 0), i32 %61, i32 %62)
  br label %64

64:                                               ; preds = %60, %57
  br label %65

65:                                               ; preds = %64, %36
  store i32 0, i32* %8, align 4
  store i32 0, i32* %9, align 4
  br label %66

66:                                               ; preds = %65
  %67 = load i32, i32* %2, align 4
  %68 = add nsw i32 %67, 2
  store i32 %68, i32* %2, align 4
  br label %16

69:                                               ; preds = %16
  br label %70

70:                                               ; preds = %69, %13
  ret i32 0
}

declare dso_local i32 @__isoc99_scanf(i8*, ...) #1

declare dso_local i32 @printf(i8*, ...) #1


!llvm.module.flags = !{!0}
!llvm.ident = !{!1}

!0 = !{i32 1, !"wchar_size", i32 4}
!1 = !{!"clang version 10.0.0-4ubuntu1 "}
