; ModuleID = 'source-C-CXX/59/1707.c'
source_filename = "source-C-CXX/59/1707.c"
target datalayout = "e-m:e-p270:32:32-p271:32:32-p272:64:64-i64:64-f80:128-n8:16:32:64-S128"
target triple = "x86_64-pc-linux-gnu"

@.str = private unnamed_addr constant [3 x i8] c"%d\00", align 1
@.str.2 = private unnamed_addr constant [7 x i8] c"%d %d\0A\00", align 1
@str = private unnamed_addr constant [6 x i8] c"empty\00", align 1

; Function Attrs: nofree nounwind sspstrong uwtable
define dso_local i32 @main() local_unnamed_addr #0 {
  %1 = alloca i32, align 4
  %2 = bitcast i32* %1 to i8*
  call void @llvm.lifetime.start.p0i8(i64 4, i8* nonnull %2) #4
  %3 = call i32 (i8*, ...) @__isoc99_scanf(i8* getelementptr inbounds ([3 x i8], [3 x i8]* @.str, i64 0, i64 0), i32* nonnull %1)
  %4 = load i32, i32* %1, align 4, !tbaa !5
  %5 = icmp slt i32 %4, 5
  br i1 %5, label %6, label %8

6:                                                ; preds = %0
  %7 = call i32 @puts(i8* nonnull dereferenceable(1) getelementptr inbounds ([6 x i8], [6 x i8]* @str, i64 0, i64 0))
  br label %68

8:                                                ; preds = %0, %63
  %9 = phi i32 [ %65, %63 ], [ %4, %0 ]
  %10 = phi i32 [ %64, %63 ], [ 3, %0 ]
  %11 = icmp ugt i32 %10, 3
  br i1 %11, label %12, label %48

12:                                               ; preds = %8
  %13 = add i32 %10, -4
  %14 = lshr i32 %13, 1
  %15 = add nuw i32 %14, 1
  %16 = and i32 %15, 1
  %17 = icmp ult i32 %13, 2
  br i1 %17, label %34, label %18

18:                                               ; preds = %12
  %19 = and i32 %15, -2
  br label %20

20:                                               ; preds = %20, %18
  %21 = phi i32 [ 0, %18 ], [ %30, %20 ]
  %22 = phi i32 [ 3, %18 ], [ %31, %20 ]
  %23 = phi i32 [ %19, %18 ], [ %32, %20 ]
  %24 = urem i32 %10, %22
  %25 = icmp eq i32 %24, 0
  %26 = add nuw nsw i32 %22, 2
  %27 = urem i32 %10, %26
  %28 = icmp eq i32 %27, 0
  %29 = select i1 %28, i1 true, i1 %25
  %30 = select i1 %29, i32 1, i32 %21
  %31 = add nuw nsw i32 %22, 4
  %32 = add i32 %23, -2
  %33 = icmp eq i32 %32, 0
  br i1 %33, label %34, label %20, !llvm.loop !9

34:                                               ; preds = %20, %12
  %35 = phi i32 [ undef, %12 ], [ %30, %20 ]
  %36 = phi i32 [ 0, %12 ], [ %30, %20 ]
  %37 = phi i32 [ 3, %12 ], [ %31, %20 ]
  %38 = icmp eq i32 %16, 0
  br i1 %38, label %43, label %39

39:                                               ; preds = %34
  %40 = urem i32 %10, %37
  %41 = icmp eq i32 %40, 0
  %42 = select i1 %41, i32 1, i32 %36
  br label %43

43:                                               ; preds = %34, %39
  %44 = phi i32 [ %35, %34 ], [ %42, %39 ]
  %45 = icmp eq i32 %44, 0
  br i1 %45, label %48, label %46

46:                                               ; preds = %43
  %47 = add nuw nsw i32 %10, 2
  br label %63

48:                                               ; preds = %8, %43
  %49 = add nuw nsw i32 %10, 2
  br label %50

50:                                               ; preds = %48, %50
  %51 = phi i32 [ %55, %50 ], [ 0, %48 ]
  %52 = phi i32 [ %56, %50 ], [ 3, %48 ]
  %53 = urem i32 %49, %52
  %54 = icmp eq i32 %53, 0
  %55 = select i1 %54, i32 1, i32 %51
  %56 = add nuw nsw i32 %52, 2
  %57 = icmp ult i32 %52, %10
  br i1 %57, label %50, label %58, !llvm.loop !11

58:                                               ; preds = %50
  %59 = icmp eq i32 %55, 0
  br i1 %59, label %60, label %63

60:                                               ; preds = %58
  %61 = call i32 (i8*, ...) @printf(i8* nonnull dereferenceable(1) getelementptr inbounds ([7 x i8], [7 x i8]* @.str.2, i64 0, i64 0), i32 %10, i32 %49)
  %62 = load i32, i32* %1, align 4, !tbaa !5
  br label %63

63:                                               ; preds = %46, %58, %60
  %64 = phi i32 [ %47, %46 ], [ %49, %58 ], [ %49, %60 ]
  %65 = phi i32 [ %9, %46 ], [ %9, %58 ], [ %62, %60 ]
  %66 = add nsw i32 %65, -2
  %67 = icmp sgt i32 %64, %66
  br i1 %67, label %68, label %8, !llvm.loop !12

68:                                               ; preds = %63, %6
  call void @llvm.lifetime.end.p0i8(i64 4, i8* nonnull %2) #4
  ret i32 0
}

; Function Attrs: argmemonly mustprogress nofree nosync nounwind willreturn
declare void @llvm.lifetime.start.p0i8(i64 immarg, i8* nocapture) #1

; Function Attrs: nofree nounwind
declare noundef i32 @__isoc99_scanf(i8* nocapture noundef readonly, ...) local_unnamed_addr #2

; Function Attrs: nofree nounwind
declare noundef i32 @printf(i8* nocapture noundef readonly, ...) local_unnamed_addr #2

; Function Attrs: argmemonly mustprogress nofree nosync nounwind willreturn
declare void @llvm.lifetime.end.p0i8(i64 immarg, i8* nocapture) #1

; Function Attrs: nofree nounwind
declare noundef i32 @puts(i8* nocapture noundef readonly) local_unnamed_addr #3


!llvm.module.flags = !{!0, !1, !2, !3}
!llvm.ident = !{!4}

!0 = !{i32 1, !"wchar_size", i32 4}
!1 = !{i32 7, !"PIC Level", i32 2}
!2 = !{i32 7, !"PIE Level", i32 2}
!3 = !{i32 7, !"uwtable", i32 1}
!4 = !{!"clang version 13.0.0"}
!5 = !{!6, !6, i64 0}
!6 = !{!"int", !7, i64 0}
!7 = !{!"omnipotent char", !8, i64 0}
!8 = !{!"Simple C/C++ TBAA"}
!9 = distinct !{!9, !10}
!10 = !{!"llvm.loop.mustprogress"}
!11 = distinct !{!11, !10}
!12 = distinct !{!12, !10}
